target datalayout = "e-m:e-p270:32:32-p271:32:32-p272:64:64-i64:64-i128:128-f80:128-n8:16:32:64-S128"
target triple = "x86_64-unknown-linux-gnu"

%struct.of_dpa = type { ptr, ptr, ptr, i32, i32 }
%struct.of_dpa_flow_action = type { i32, %struct.anon.11, %struct.anon.12 }
%struct.anon.11 = type { i32, i32, i16 }
%struct.anon.12 = type { i16, i32, i8, i16 }
%struct.of_dpa_group = type { i32, %union.anon.14 }
%union.anon.14 = type { %struct.anon.17, [8 x i8] }
%struct.anon.17 = type { i16, ptr }
%struct.anon.15 = type { i32, i8 }
%struct.of_dpa_flow_context = type { i32, i32, ptr, i32, %struct.eth_header, %struct.vlan_header, %struct.vlan_header, ptr, %struct.of_dpa_flow_pkt_fields, %struct.of_dpa_flow_action }
%struct.eth_header = type { [6 x i8], [6 x i8], i16 }
%struct.vlan_header = type { i16, i16 }
%struct.of_dpa_flow_pkt_fields = type { i32, ptr, ptr, ptr, ptr, ptr, ptr, ptr }
%struct.iovec = type { ptr, i64 }

; Function Attrs: nounwind sspstrong uwtable
define internal void @of_dpa_flow_pkt_strip_vlan(ptr noundef %fc) #0 {
entry:
  %fc.addr = alloca ptr, align 8
  %fields = alloca ptr, align 8
  store ptr %fc, ptr %fc.addr, align 8
  %0 = load ptr, ptr %fc.addr, align 8
  %fields1 = getelementptr inbounds %struct.of_dpa_flow_context, ptr %0, i32 0, i32 8
  store ptr %fields1, ptr %fields, align 8
  %1 = load ptr, ptr %fields, align 8
  %vlanhdr = getelementptr inbounds %struct.of_dpa_flow_pkt_fields, ptr %1, i32 0, i32 3
  %2 = load ptr, ptr %vlanhdr, align 8
  %tobool = icmp ne ptr %2, null
  br i1 %tobool, label %if.end, label %if.then

if.then:                                          ; preds = %entry
  br label %return

if.end:                                           ; preds = %entry
  %3 = load ptr, ptr %fc.addr, align 8
  %iov = getelementptr inbounds %struct.of_dpa_flow_context, ptr %3, i32 0, i32 2
  %4 = load ptr, ptr %iov, align 8
  %arrayidx = getelementptr %struct.iovec, ptr %4, i64 0
  %iov_len = getelementptr inbounds %struct.iovec, ptr %arrayidx, i32 0, i32 1
  %5 = load i64, ptr %iov_len, align 8
  %sub = sub i64 %5, 2
  store i64 %sub, ptr %iov_len, align 8
  %6 = load ptr, ptr %fields, align 8
  %h_proto = getelementptr inbounds %struct.of_dpa_flow_pkt_fields, ptr %6, i32 0, i32 2
  %7 = load ptr, ptr %h_proto, align 8
  %8 = load ptr, ptr %fc.addr, align 8
  %iov2 = getelementptr inbounds %struct.of_dpa_flow_context, ptr %8, i32 0, i32 2
  %9 = load ptr, ptr %iov2, align 8
  %arrayidx3 = getelementptr %struct.iovec, ptr %9, i64 1
  %iov_base = getelementptr inbounds %struct.iovec, ptr %arrayidx3, i32 0, i32 0
  store ptr %7, ptr %iov_base, align 8
  %10 = load ptr, ptr %fc.addr, align 8
  %iov4 = getelementptr inbounds %struct.of_dpa_flow_context, ptr %10, i32 0, i32 2
  %11 = load ptr, ptr %iov4, align 8
  %arrayidx5 = getelementptr %struct.iovec, ptr %11, i64 1
  %iov_len6 = getelementptr inbounds %struct.iovec, ptr %arrayidx5, i32 0, i32 1
  store i64 2, ptr %iov_len6, align 8
  br label %return

return:                                           ; preds = %if.end, %if.then
  ret void
}

; Function Attrs: nounwind sspstrong uwtable
define internal void @of_dpa_output_l2_interface(ptr noundef %fc, ptr noundef %group) #0 {
entry:
  %fc.addr = alloca ptr, align 8
  %group.addr = alloca ptr, align 8
  %copy_to_cpu = alloca i8, align 1
  store ptr %fc, ptr %fc.addr, align 8
  store ptr %group, ptr %group.addr, align 8
  %0 = load ptr, ptr %fc.addr, align 8
  %action_set = getelementptr inbounds %struct.of_dpa_flow_context, ptr %0, i32 0, i32 9
  %apply = getelementptr inbounds %struct.of_dpa_flow_action, ptr %action_set, i32 0, i32 2
  %copy_to_cpu1 = getelementptr inbounds %struct.anon.12, ptr %apply, i32 0, i32 2
  %1 = load i8, ptr %copy_to_cpu1, align 8
  store i8 %1, ptr %copy_to_cpu, align 1
  %2 = load ptr, ptr %group.addr, align 8
  %3 = getelementptr inbounds %struct.of_dpa_group, ptr %2, i32 0, i32 1
  %pop_vlan = getelementptr inbounds %struct.anon.15, ptr %3, i32 0, i32 1
  %4 = load i8, ptr %pop_vlan, align 4
  %tobool = icmp ne i8 %4, 0
  br i1 %tobool, label %if.then, label %if.end

if.then:                                          ; preds = %entry
  %5 = load ptr, ptr %fc.addr, align 8
  call void @of_dpa_flow_pkt_strip_vlan(ptr noundef %5)
  br label %if.end

if.end:                                           ; preds = %if.then, %entry
  %6 = load ptr, ptr %group.addr, align 8
  %7 = getelementptr inbounds %struct.of_dpa_group, ptr %6, i32 0, i32 1
  %out_pport = getelementptr inbounds %struct.anon.15, ptr %7, i32 0, i32 0
  %8 = load i32, ptr %out_pport, align 8
  %cmp = icmp eq i32 %8, 0
  br i1 %cmp, label %if.then2, label %if.else

if.then2:                                         ; preds = %if.end
  %9 = load ptr, ptr %fc.addr, align 8
  %of_dpa = getelementptr inbounds %struct.of_dpa_flow_context, ptr %9, i32 0, i32 7
  %10 = load ptr, ptr %of_dpa, align 8
  %world = getelementptr inbounds %struct.of_dpa, ptr %10, i32 0, i32 0
  %11 = load ptr, ptr %world, align 8
  %12 = load ptr, ptr %fc.addr, align 8
  %in_pport = getelementptr inbounds %struct.of_dpa_flow_context, ptr %12, i32 0, i32 0
  %13 = load i32, ptr %in_pport, align 8
  %14 = load ptr, ptr %fc.addr, align 8
  %iov = getelementptr inbounds %struct.of_dpa_flow_context, ptr %14, i32 0, i32 2
  %15 = load ptr, ptr %iov, align 8
  %16 = load ptr, ptr %fc.addr, align 8
  %iovcnt = getelementptr inbounds %struct.of_dpa_flow_context, ptr %16, i32 0, i32 3
  %17 = load i32, ptr %iovcnt, align 8
  %18 = load i8, ptr %copy_to_cpu, align 1
  %call = call i32 @rx_produce(ptr noundef %11, i32 noundef %13, ptr noundef %15, i32 noundef %17, i8 noundef zeroext %18)
  br label %if.end15

if.else:                                          ; preds = %if.end
  %19 = load ptr, ptr %group.addr, align 8
  %20 = getelementptr inbounds %struct.of_dpa_group, ptr %19, i32 0, i32 1
  %out_pport3 = getelementptr inbounds %struct.anon.15, ptr %20, i32 0, i32 0
  %21 = load i32, ptr %out_pport3, align 8
  %22 = load ptr, ptr %fc.addr, align 8
  %in_pport4 = getelementptr inbounds %struct.of_dpa_flow_context, ptr %22, i32 0, i32 0
  %23 = load i32, ptr %in_pport4, align 8
  %cmp5 = icmp ne i32 %21, %23
  br i1 %cmp5, label %if.then6, label %if.end14

if.then6:                                         ; preds = %if.else
  %24 = load ptr, ptr %fc.addr, align 8
  %of_dpa7 = getelementptr inbounds %struct.of_dpa_flow_context, ptr %24, i32 0, i32 7
  %25 = load ptr, ptr %of_dpa7, align 8
  %world8 = getelementptr inbounds %struct.of_dpa, ptr %25, i32 0, i32 0
  %26 = load ptr, ptr %world8, align 8
  %call9 = call ptr @world_rocker(ptr noundef %26)
  %27 = load ptr, ptr %group.addr, align 8
  %28 = getelementptr inbounds %struct.of_dpa_group, ptr %27, i32 0, i32 1
  %out_pport10 = getelementptr inbounds %struct.anon.15, ptr %28, i32 0, i32 0
  %29 = load i32, ptr %out_pport10, align 8
  %30 = load ptr, ptr %fc.addr, align 8
  %iov11 = getelementptr inbounds %struct.of_dpa_flow_context, ptr %30, i32 0, i32 2
  %31 = load ptr, ptr %iov11, align 8
  %32 = load ptr, ptr %fc.addr, align 8
  %iovcnt12 = getelementptr inbounds %struct.of_dpa_flow_context, ptr %32, i32 0, i32 3
  %33 = load i32, ptr %iovcnt12, align 8
  %call13 = call i32 @rocker_port_eg(ptr noundef %call9, i32 noundef %29, ptr noundef %31, i32 noundef %33)
  br label %if.end14

if.end14:                                         ; preds = %if.then6, %if.else
  br label %if.end15

if.end15:                                         ; preds = %if.end14, %if.then2
  ret void
}