; Function Attrs: nounwind sspstrong uwtable
define internal fastcc void @of_dpa_output_l2_interface(ptr noundef readonly captures(none) %fc, ptr noundef nonnull readonly captures(none) %group) unnamed_addr #0 {
entry:
  %copy_to_cpu1 = getelementptr inbounds nuw i8, ptr %fc, i64 144
  %0 = load i8, ptr %copy_to_cpu1, align 8
  %1 = getelementptr inbounds nuw i8, ptr %group, i64 8
  %pop_vlan = getelementptr inbounds nuw i8, ptr %group, i64 12
  %2 = load i8, ptr %pop_vlan, align 4
  %tobool.not = icmp eq i8 %2, 0
  br i1 %tobool.not, label %if.end, label %if.then

if.then:                                          ; preds = %entry
  %vlanhdr.i = getelementptr inbounds nuw i8, ptr %fc, i64 80
  %3 = load ptr, ptr %vlanhdr.i, align 8
  %tobool.not.i = icmp eq ptr %3, null
  br i1 %tobool.not.i, label %if.end, label %if.end.i

if.end.i:                                         ; preds = %if.then
  %iov.i = getelementptr inbounds nuw i8, ptr %fc, i64 8
  %4 = load ptr, ptr %iov.i, align 8
  %iov_len.i = getelementptr inbounds nuw i8, ptr %4, i64 8
  %5 = load i64, ptr %iov_len.i, align 8
  %sub.i = add i64 %5, -2
  store i64 %sub.i, ptr %iov_len.i, align 8
  %h_proto.i = getelementptr inbounds nuw i8, ptr %fc, i64 72
  %6 = load ptr, ptr %h_proto.i, align 8
  %7 = load ptr, ptr %iov.i, align 8
  %arrayidx3.i = getelementptr i8, ptr %7, i64 16
  store ptr %6, ptr %arrayidx3.i, align 8
  %8 = load ptr, ptr %iov.i, align 8
  %iov_len6.i = getelementptr i8, ptr %8, i64 24
  store i64 2, ptr %iov_len6.i, align 8
  br label %if.end

if.end:                                           ; preds = %if.end.i, %if.then, %entry
  %9 = load i32, ptr %1, align 8
  %cmp = icmp eq i32 %9, 0
  br i1 %cmp, label %if.then2, label %if.else

if.then2:                                         ; preds = %if.end
  %of_dpa = getelementptr inbounds nuw i8, ptr %fc, i64 48
  %10 = load ptr, ptr %of_dpa, align 8
  %11 = load ptr, ptr %10, align 8
  %12 = load i32, ptr %fc, align 8
  %iov = getelementptr inbounds nuw i8, ptr %fc, i64 8
  %13 = load ptr, ptr %iov, align 8
  %iovcnt = getelementptr inbounds nuw i8, ptr %fc, i64 16
  %14 = load i32, ptr %iovcnt, align 8
  %call = tail call i32 @rx_produce(ptr noundef %11, i32 noundef %12, ptr noundef %13, i32 noundef %14, i8 noundef zeroext %0) #18
  br label %if.end15

if.else:                                          ; preds = %if.end
  %15 = load i32, ptr %fc, align 8
  %cmp5.not = icmp eq i32 %9, %15
  br i1 %cmp5.not, label %if.end15, label %if.then6

if.then6:                                         ; preds = %if.else
  %of_dpa7 = getelementptr inbounds nuw i8, ptr %fc, i64 48
  %16 = load ptr, ptr %of_dpa7, align 8
  %17 = load ptr, ptr %16, align 8
  %call9 = tail call ptr @world_rocker(ptr noundef %17) #18
  %18 = load i32, ptr %1, align 8
  %iov11 = getelementptr inbounds nuw i8, ptr %fc, i64 8
  %19 = load ptr, ptr %iov11, align 8
  %iovcnt12 = getelementptr inbounds nuw i8, ptr %fc, i64 16
  %20 = load i32, ptr %iovcnt12, align 8
  %call13 = tail call i32 @rocker_port_eg(ptr noundef %call9, i32 noundef %18, ptr noundef %19, i32 noundef %20) #18
  br label %if.end15

if.end15:                                         ; preds = %if.else, %if.then6, %if.then2
  ret void
}